; Function Attrs: null_pointer_is_valid sspstrong uwtable
define internal i32 @mapi_dissect_EcRGetDCName_response(ptr noundef %0, i32 noundef %1, ptr noundef %2, ptr noundef %3, ptr noundef initializes((72, 80)) %4, ptr noundef %5) #0 {
  %7 = alloca i32, align 4
  call void @llvm.lifetime.start.p0(i64 4, ptr nonnull %7) #6
  %8 = getelementptr inbounds nuw i8, ptr %4, i64 72
  store ptr @.str.6374, ptr %8, align 8
  %9 = load i32, ptr @hf_mapi_mapi_EcRGetDCName_handle, align 4
  %10 = tail call i32 @dissect_ndr_toplevel_pointer(ptr noundef %0, i32 noundef %1, ptr noundef %2, ptr noundef %3, ptr noundef %4, ptr noundef %5, ptr noundef nonnull @mapi_dissect_element_EcRGetDCName_handle_, i32 noundef 1, ptr noundef nonnull @.str.6400, i32 noundef %9)
  %11 = tail call i32 @dissect_deferred_pointers(ptr noundef %2, ptr noundef %0, i32 noundef %10, ptr noundef %4, ptr noundef %5)
  br label %12

12:                                               ; preds = %12, %6
  %.010.i = phi i32 [ 0, %6 ], [ %15, %12 ]
  %.089.i = phi i32 [ %11, %6 ], [ %14, %12 ]
  %13 = load i32, ptr @hf_mapi_mapi_EcRGetDCName_rgchDomainController, align 4
  %14 = tail call i32 @PIDL_dissect_uint8(ptr noundef %0, i32 noundef %.089.i, ptr noundef %2, ptr noundef %3, ptr noundef %4, ptr noundef %5, i32 noundef %13, i32 noundef 0)
  %15 = add nuw nsw i32 %.010.i, 1
  %exitcond.not.i = icmp eq i32 %15, 16
  br i1 %exitcond.not.i, label %mapi_dissect_element_EcRGetDCName_rgchDomainController.exit, label %12, !llvm.loop !27

mapi_dissect_element_EcRGetDCName_rgchDomainController.exit: ; preds = %12
  %16 = tail call i32 @dissect_deferred_pointers(ptr noundef %2, ptr noundef %0, i32 noundef %14, ptr noundef %4, ptr noundef %5)
  %17 = load i32, ptr @hf_mapi_werror, align 4
  %18 = call i32 @dissect_ndr_uint32(ptr noundef %0, i32 noundef %16, ptr noundef %2, ptr noundef %3, ptr noundef %4, ptr noundef %5, i32 noundef %17, ptr noundef nonnull %7)
  %19 = load i32, ptr %7, align 4
  %.not = icmp eq i32 %19, 0
  br i1 %.not, label %24, label %20

20:                                               ; preds = %mapi_dissect_element_EcRGetDCName_rgchDomainController.exit
  %21 = getelementptr inbounds nuw i8, ptr %2, i64 8
  %22 = load ptr, ptr %21, align 8
  %23 = call ptr @val_to_str_ext(i32 noundef %19, ptr noundef nonnull @WERR_errors_ext, ptr noundef nonnull @.str.6389)
  call void (ptr, i32, ptr, ...) @col_append_fstr(ptr noundef %22, i32 noundef 25, ptr noundef nonnull @.str.6388, ptr noundef %23)
  br label %24

24:                                               ; preds = %20, %mapi_dissect_element_EcRGetDCName_rgchDomainController.exit
  call void @llvm.lifetime.end.p0(i64 4, ptr nonnull %7) #6
  ret i32 %18
}